target datalayout = "e-m:e-p270:32:32-p271:32:32-p272:64:64-i64:64-i128:128-f80:128-n8:16:32:64-S128"
target triple = "x86_64-pc-linux-gnu"

%class.QString = type { ptr }
%class.SettingDialog = type { %class.QDialog, ptr, ptr, ptr, %class.RichParameterListFrame, ptr, ptr, ptr, ptr, ptr, ptr }
%class.QDialog = type { %class.QWidget }
%class.QWidget = type { %class.QObject, %class.QPaintDevice, ptr }
%class.QObject = type { ptr, %class.QScopedPointer }
%class.QScopedPointer = type { ptr }
%class.QPaintDevice = type { ptr, i16, ptr }
%class.RichParameterListFrame = type { %class.QFrame, %class.RichParameterList, %"class.std::map", i8, ptr, i8, %"class.std::set", ptr }
%class.QFrame = type { %class.QWidget }
%class.RichParameterList = type { %"class.std::__cxx11::list" }
%"class.std::__cxx11::list" = type { %"class.std::__cxx11::_List_base" }
%"class.std::__cxx11::_List_base" = type { %"struct.std::__cxx11::_List_base<RichParameter *, std::allocator<RichParameter *>>::_List_impl" }
%"struct.std::__cxx11::_List_base<RichParameter *, std::allocator<RichParameter *>>::_List_impl" = type { %"struct.std::__detail::_List_node_header" }
%"struct.std::__detail::_List_node_header" = type { %"struct.std::__detail::_List_node_base", i64 }
%"struct.std::__detail::_List_node_base" = type { ptr, ptr }
%"class.std::map" = type { %"class.std::_Rb_tree" }
%"class.std::_Rb_tree" = type { %"struct.std::_Rb_tree<QString, std::pair<const QString, RichParameterWidget *>, std::_Select1st<std::pair<const QString, RichParameterWidget *>>, std::less<QString>>::_Rb_tree_impl" }
%"struct.std::_Rb_tree<QString, std::pair<const QString, RichParameterWidget *>, std::_Select1st<std::pair<const QString, RichParameterWidget *>>, std::less<QString>>::_Rb_tree_impl" = type { %"struct.std::_Rb_tree_key_compare", %"struct.std::_Rb_tree_header" }
%"struct.std::_Rb_tree_key_compare" = type { %"struct.std::less" }
%"struct.std::less" = type { i8 }
%"struct.std::_Rb_tree_header" = type { %"struct.std::_Rb_tree_node_base", i64 }
%"struct.std::_Rb_tree_node_base" = type { i32, ptr, ptr, ptr }
%"class.std::set" = type { %"class.std::_Rb_tree.4" }
%"class.std::_Rb_tree.4" = type { %"struct.std::_Rb_tree<QString, QString, std::_Identity<QString>, std::less<QString>>::_Rb_tree_impl" }
%"struct.std::_Rb_tree<QString, QString, std::_Identity<QString>, std::less<QString>>::_Rb_tree_impl" = type { %"struct.std::_Rb_tree_key_compare", %"struct.std::_Rb_tree_header" }
%class.QDomDocument = type { %class.QDomNode }
%class.QDomNode = type { ptr }
%class.QDomElement = type { %class.QDomNode }
%class.QSettings = type { %class.QObject }
%class.QVariant = type { %"struct.QVariant::Private" }
%"struct.QVariant::Private" = type <{ %"union.QVariant::Private::Data", i32, [4 x i8] }>
%"union.QVariant::Private::Data" = type { i64 }

@.str.14 = private unnamed_addr constant [16 x i8] c"MeshLabSettings\00", align 1

; Function Attrs: mustprogress nounwind uwtable
define linkonce_odr void @_ZN11QDomElementD2Ev(ptr noundef nonnull align 8 dereferenceable(8) %0) unnamed_addr #4 comdat align 2 {
  %2 = alloca ptr, align 8
  store ptr %0, ptr %2, align 8
  %3 = load ptr, ptr %2, align 8
  call void @_ZN8QDomNodeD2Ev(ptr noundef nonnull align 8 dereferenceable(8) %3) #3
  ret void
}

; Function Attrs: mustprogress uwtable
define linkonce_odr void @_ZN7QStringC2EPKc(ptr noundef nonnull align 8 dereferenceable(8) %0, ptr noundef %1) unnamed_addr #5 comdat align 2 {
  %3 = alloca ptr, align 8
  %4 = alloca ptr, align 8
  store ptr %0, ptr %3, align 8
  store ptr %1, ptr %4, align 8
  %5 = load ptr, ptr %3, align 8
  %6 = getelementptr inbounds %class.QString, ptr %5, i32 0, i32 0
  %7 = load ptr, ptr %4, align 8
  %8 = load ptr, ptr %4, align 8
  %9 = icmp ne ptr %8, null
  br i1 %9, label %10, label %14

10:                                               ; preds = %2
  %11 = load ptr, ptr %4, align 8
  %12 = call i64 @strlen(ptr noundef %11) #13
  %13 = trunc i64 %12 to i32
  br label %15

14:                                               ; preds = %2
  br label %15

15:                                               ; preds = %14, %10
  %16 = phi i32 [ %13, %10 ], [ -1, %14 ]
  %17 = call noundef ptr @_ZN7QString16fromAscii_helperEPKci(ptr noundef %7, i32 noundef %16)
  store ptr %17, ptr %6, align 8
  ret void
}

; Function Attrs: mustprogress uwtable
define void @_ZN13SettingDialog4saveEv(ptr noundef nonnull align 8 dereferenceable(320) %0) #5 align 2 personality ptr @__gxx_personality_v0 {
  %2 = alloca ptr, align 8
  %3 = alloca %class.QDomDocument, align 8
  %4 = alloca %class.QString, align 8
  %5 = alloca ptr, align 8
  %6 = alloca i32, align 4
  %7 = alloca %class.QDomNode, align 8
  %8 = alloca %class.QDomElement, align 8
  %9 = alloca %class.QString, align 8
  %10 = alloca %class.QSettings, align 8
  %11 = alloca %class.QVariant, align 8
  store ptr %0, ptr %2, align 8
  %12 = load ptr, ptr %2, align 8
  call void @_ZN13SettingDialog5applyEv(ptr noundef nonnull align 8 dereferenceable(320) %12)
  %13 = getelementptr inbounds %class.SettingDialog, ptr %12, i32 0, i32 2
  %14 = load ptr, ptr %13, align 8
  %15 = icmp eq ptr %14, null
  br i1 %15, label %20, label %16

16:                                               ; preds = %1
  %17 = load ptr, ptr %14, align 8
  %18 = getelementptr inbounds ptr, ptr %17, i64 1
  %19 = load ptr, ptr %18, align 8
  call void %19(ptr noundef nonnull align 8 dereferenceable(56) %14) #3
  br label %20

20:                                               ; preds = %16, %1
  %21 = getelementptr inbounds %class.SettingDialog, ptr %12, i32 0, i32 1
  %22 = load ptr, ptr %21, align 8
  %23 = load ptr, ptr %22, align 8
  %24 = getelementptr inbounds ptr, ptr %23, i64 3
  %25 = load ptr, ptr %24, align 8
  %26 = call noundef ptr %25(ptr noundef nonnull align 8 dereferenceable(56) %22)
  %27 = getelementptr inbounds %class.SettingDialog, ptr %12, i32 0, i32 2
  store ptr %26, ptr %27, align 8
  call void @_ZN7QStringC2EPKc(ptr noundef nonnull align 8 dereferenceable(8) %4, ptr noundef @.str.14)
  invoke void @_ZN12QDomDocumentC1ERK7QString(ptr noundef nonnull align 8 dereferenceable(8) %3, ptr noundef nonnull align 8 dereferenceable(8) %4)
          to label %28 unwind label %44

28:                                               ; preds = %20
  call void @_ZN7QStringD2Ev(ptr noundef nonnull align 8 dereferenceable(8) %4) #3
  %29 = getelementptr inbounds %class.SettingDialog, ptr %12, i32 0, i32 1
  %30 = load ptr, ptr %29, align 8
  %31 = load ptr, ptr %30, align 8
  %32 = getelementptr inbounds ptr, ptr %31, i64 2
  %33 = load ptr, ptr %32, align 8
  invoke void %33(ptr dead_on_unwind writable sret(%class.QDomElement) align 8 %8, ptr noundef nonnull align 8 dereferenceable(56) %30, ptr noundef nonnull align 8 dereferenceable(8) %3, i1 noundef zeroext true)
          to label %34 unwind label %48

34:                                               ; preds = %28
  invoke void @_ZN8QDomNode11appendChildERKS_(ptr dead_on_unwind writable sret(%class.QDomNode) align 8 %7, ptr noundef nonnull align 8 dereferenceable(8) %3, ptr noundef nonnull align 8 dereferenceable(8) %8)
          to label %35 unwind label %52

35:                                               ; preds = %34
  call void @_ZN8QDomNodeD1Ev(ptr noundef nonnull align 8 dereferenceable(8) %7) #3
  call void @_ZN11QDomElementD2Ev(ptr noundef nonnull align 8 dereferenceable(8) %8) #3
  invoke void @_ZNK12QDomDocument8toStringEi(ptr dead_on_unwind writable sret(%class.QString) align 8 %9, ptr noundef nonnull align 8 dereferenceable(8) %3, i32 noundef 1)
          to label %36 unwind label %48

36:                                               ; preds = %35
  invoke void @_ZN9QSettingsC1EP7QObject(ptr noundef nonnull align 8 dereferenceable(16) %10, ptr noundef null)
          to label %37 unwind label %56

37:                                               ; preds = %36
  %38 = getelementptr inbounds %class.SettingDialog, ptr %12, i32 0, i32 1
  %39 = load ptr, ptr %38, align 8
  %40 = invoke noundef nonnull align 8 dereferenceable(8) ptr @_ZNK13RichParameter4nameEv(ptr noundef nonnull align 8 dereferenceable(56) %39)
          to label %41 unwind label %60

41:                                               ; preds = %37
  invoke void @_ZN8QVariantC1ERK7QString(ptr noundef nonnull align 8 dereferenceable(16) %11, ptr noundef nonnull align 8 dereferenceable(8) %9)
          to label %42 unwind label %60

42:                                               ; preds = %41
  invoke void @_ZN9QSettings8setValueERK7QStringRK8QVariant(ptr noundef nonnull align 8 dereferenceable(16) %10, ptr noundef nonnull align 8 dereferenceable(8) %40, ptr noundef nonnull align 8 dereferenceable(16) %11)
          to label %43 unwind label %64

43:                                               ; preds = %42
  call void @_ZN8QVariantD1Ev(ptr noundef nonnull align 8 dereferenceable(16) %11) #3
  call void @_ZN9QSettingsD1Ev(ptr noundef nonnull align 8 dereferenceable(16) %10) #3
  call void @_ZN7QStringD2Ev(ptr noundef nonnull align 8 dereferenceable(8) %9) #3
  call void @_ZN12QDomDocumentD1Ev(ptr noundef nonnull align 8 dereferenceable(8) %3) #3
  ret void

44:                                               ; preds = %20
  %45 = landingpad { ptr, i32 }
          cleanup
  %46 = extractvalue { ptr, i32 } %45, 0
  store ptr %46, ptr %5, align 8
  %47 = extractvalue { ptr, i32 } %45, 1
  store i32 %47, ptr %6, align 4
  call void @_ZN7QStringD2Ev(ptr noundef nonnull align 8 dereferenceable(8) %4) #3
  br label %71

48:                                               ; preds = %35, %28
  %49 = landingpad { ptr, i32 }
          cleanup
  %50 = extractvalue { ptr, i32 } %49, 0
  store ptr %50, ptr %5, align 8
  %51 = extractvalue { ptr, i32 } %49, 1
  store i32 %51, ptr %6, align 4
  br label %70

52:                                               ; preds = %34
  %53 = landingpad { ptr, i32 }
          cleanup
  %54 = extractvalue { ptr, i32 } %53, 0
  store ptr %54, ptr %5, align 8
  %55 = extractvalue { ptr, i32 } %53, 1
  store i32 %55, ptr %6, align 4
  call void @_ZN11QDomElementD2Ev(ptr noundef nonnull align 8 dereferenceable(8) %8) #3
  br label %70

56:                                               ; preds = %36
  %57 = landingpad { ptr, i32 }
          cleanup
  %58 = extractvalue { ptr, i32 } %57, 0
  store ptr %58, ptr %5, align 8
  %59 = extractvalue { ptr, i32 } %57, 1
  store i32 %59, ptr %6, align 4
  br label %69

60:                                               ; preds = %41, %37
  %61 = landingpad { ptr, i32 }
          cleanup
  %62 = extractvalue { ptr, i32 } %61, 0
  store ptr %62, ptr %5, align 8
  %63 = extractvalue { ptr, i32 } %61, 1
  store i32 %63, ptr %6, align 4
  br label %68

64:                                               ; preds = %42
  %65 = landingpad { ptr, i32 }
          cleanup
  %66 = extractvalue { ptr, i32 } %65, 0
  store ptr %66, ptr %5, align 8
  %67 = extractvalue { ptr, i32 } %65, 1
  store i32 %67, ptr %6, align 4
  call void @_ZN8QVariantD1Ev(ptr noundef nonnull align 8 dereferenceable(16) %11) #3
  br label %68

68:                                               ; preds = %64, %60
  call void @_ZN9QSettingsD1Ev(ptr noundef nonnull align 8 dereferenceable(16) %10) #3
  br label %69

69:                                               ; preds = %68, %56
  call void @_ZN7QStringD2Ev(ptr noundef nonnull align 8 dereferenceable(8) %9) #3
  br label %70

70:                                               ; preds = %69, %52, %48
  call void @_ZN12QDomDocumentD1Ev(ptr noundef nonnull align 8 dereferenceable(8) %3) #3
  br label %71

71:                                               ; preds = %70, %44
  %72 = load ptr, ptr %5, align 8
  %73 = load i32, ptr %6, align 4
  %74 = insertvalue { ptr, i32 } poison, ptr %72, 0
  %75 = insertvalue { ptr, i32 } %74, i32 %73, 1
  resume { ptr, i32 } %75
}