; Function Attrs: mustprogress uwtable
define void @_ZN13SettingDialog4saveEv(ptr noundef nonnull align 8 dereferenceable(320) %0) local_unnamed_addr #3 align 2 personality ptr @__gxx_personality_v0 {
  %2 = alloca %class.QDomDocument, align 8
  %3 = alloca %class.QString, align 8
  %4 = alloca %class.QDomNode, align 8
  %5 = alloca %class.QDomElement, align 8
  %6 = alloca %class.QString, align 8
  %7 = alloca %class.QSettings, align 8
  %8 = alloca %class.QVariant, align 8
  tail call void @_ZN13SettingDialog5applyEv(ptr noundef nonnull align 8 dereferenceable(320) %0)
  %9 = getelementptr inbounds i8, ptr %0, i64 56
  %10 = load ptr, ptr %9, align 8
  %11 = icmp eq ptr %10, null
  br i1 %11, label %16, label %12

12:                                               ; preds = %1
  %13 = load ptr, ptr %10, align 8
  %14 = getelementptr inbounds i8, ptr %13, i64 8
  %15 = load ptr, ptr %14, align 8
  tail call void %15(ptr noundef nonnull align 8 dereferenceable(56) %10) #11
  br label %16

16:                                               ; preds = %12, %1
  %17 = getelementptr inbounds i8, ptr %0, i64 48
  %18 = load ptr, ptr %17, align 8
  %19 = load ptr, ptr %18, align 8
  %20 = getelementptr inbounds i8, ptr %19, i64 24
  %21 = load ptr, ptr %20, align 8
  %22 = tail call noundef ptr %21(ptr noundef nonnull align 8 dereferenceable(56) %18)
  store ptr %22, ptr %9, align 8
  %23 = tail call noundef ptr @_ZN7QString16fromAscii_helperEPKci(ptr noundef nonnull @.str.14, i32 noundef 15)
  store ptr %23, ptr %3, align 8
  invoke void @_ZN12QDomDocumentC1ERK7QString(ptr noundef nonnull align 8 dereferenceable(8) %2, ptr noundef nonnull align 8 dereferenceable(8) %3)
          to label %24 unwind label %46

24:                                               ; preds = %16
  %25 = load ptr, ptr %3, align 8
  %26 = load atomic i32, ptr %25 monotonic, align 4
  switch i32 %26, label %_ZN9QtPrivate8RefCount5derefEv.exit.i [
    i32 0, label %_ZN9QtPrivate8RefCount5derefEv.exit.thread2.i
    i32 -1, label %_ZN7QStringD2Ev.exit
  ]

_ZN9QtPrivate8RefCount5derefEv.exit.i:            ; preds = %24
  %27 = atomicrmw sub ptr %25, i32 1 seq_cst, align 4
  %.not.i = icmp eq i32 %27, 1
  br i1 %.not.i, label %_ZN9QtPrivate8RefCount5derefEv.exit._ZN9QtPrivate8RefCount5derefEv.exit.thread2_crit_edge.i, label %_ZN7QStringD2Ev.exit

_ZN9QtPrivate8RefCount5derefEv.exit._ZN9QtPrivate8RefCount5derefEv.exit.thread2_crit_edge.i: ; preds = %_ZN9QtPrivate8RefCount5derefEv.exit.i
  %.pre.i = load ptr, ptr %3, align 8
  br label %_ZN9QtPrivate8RefCount5derefEv.exit.thread2.i

_ZN9QtPrivate8RefCount5derefEv.exit.thread2.i:    ; preds = %_ZN9QtPrivate8RefCount5derefEv.exit._ZN9QtPrivate8RefCount5derefEv.exit.thread2_crit_edge.i, %24
  %28 = phi ptr [ %.pre.i, %_ZN9QtPrivate8RefCount5derefEv.exit._ZN9QtPrivate8RefCount5derefEv.exit.thread2_crit_edge.i ], [ %25, %24 ]
  call void @_ZN10QArrayData10deallocateEPS_mm(ptr noundef %28, i64 noundef 2, i64 noundef 8) #11
  br label %_ZN7QStringD2Ev.exit

_ZN7QStringD2Ev.exit:                             ; preds = %24, %_ZN9QtPrivate8RefCount5derefEv.exit.i, %_ZN9QtPrivate8RefCount5derefEv.exit.thread2.i
  %29 = load ptr, ptr %17, align 8
  %30 = load ptr, ptr %29, align 8
  %31 = getelementptr inbounds i8, ptr %30, i64 16
  %32 = load ptr, ptr %31, align 8
  invoke void %32(ptr dead_on_unwind nonnull writable sret(%class.QDomElement) align 8 %5, ptr noundef nonnull align 8 dereferenceable(56) %29, ptr noundef nonnull align 8 dereferenceable(8) %2, i1 noundef zeroext true)
          to label %33 unwind label %48

33:                                               ; preds = %_ZN7QStringD2Ev.exit
  invoke void @_ZN8QDomNode11appendChildERKS_(ptr dead_on_unwind nonnull writable sret(%class.QDomNode) align 8 %4, ptr noundef nonnull align 8 dereferenceable(8) %2, ptr noundef nonnull align 8 dereferenceable(8) %5)
          to label %34 unwind label %50

34:                                               ; preds = %33
  call void @_ZN8QDomNodeD1Ev(ptr noundef nonnull align 8 dereferenceable(8) %4) #11
  call void @_ZN8QDomNodeD2Ev(ptr noundef nonnull align 8 dereferenceable(8) %5) #11
  invoke void @_ZNK12QDomDocument8toStringEi(ptr dead_on_unwind nonnull writable sret(%class.QString) align 8 %6, ptr noundef nonnull align 8 dereferenceable(8) %2, i32 noundef 1)
          to label %35 unwind label %48

35:                                               ; preds = %34
  invoke void @_ZN9QSettingsC1EP7QObject(ptr noundef nonnull align 8 dereferenceable(16) %7, ptr noundef null)
          to label %36 unwind label %52

36:                                               ; preds = %35
  %37 = load ptr, ptr %17, align 8
  %38 = invoke noundef nonnull align 8 dereferenceable(8) ptr @_ZNK13RichParameter4nameEv(ptr noundef nonnull align 8 dereferenceable(56) %37)
          to label %39 unwind label %54

39:                                               ; preds = %36
  invoke void @_ZN8QVariantC1ERK7QString(ptr noundef nonnull align 8 dereferenceable(16) %8, ptr noundef nonnull align 8 dereferenceable(8) %6)
          to label %40 unwind label %54

40:                                               ; preds = %39
  invoke void @_ZN9QSettings8setValueERK7QStringRK8QVariant(ptr noundef nonnull align 8 dereferenceable(16) %7, ptr noundef nonnull align 8 dereferenceable(8) %38, ptr noundef nonnull align 8 dereferenceable(16) %8)
          to label %41 unwind label %56

41:                                               ; preds = %40
  call void @_ZN8QVariantD1Ev(ptr noundef nonnull align 8 dereferenceable(16) %8) #11
  call void @_ZN9QSettingsD1Ev(ptr noundef nonnull align 8 dereferenceable(16) %7) #11
  %42 = load ptr, ptr %6, align 8
  %43 = load atomic i32, ptr %42 monotonic, align 4
  switch i32 %43, label %_ZN9QtPrivate8RefCount5derefEv.exit.i12 [
    i32 0, label %_ZN9QtPrivate8RefCount5derefEv.exit.thread2.i11
    i32 -1, label %_ZN7QStringD2Ev.exit16
  ]

_ZN9QtPrivate8RefCount5derefEv.exit.i12:          ; preds = %41
  %44 = atomicrmw sub ptr %42, i32 1 seq_cst, align 4
  %.not.i13 = icmp eq i32 %44, 1
  br i1 %.not.i13, label %_ZN9QtPrivate8RefCount5derefEv.exit._ZN9QtPrivate8RefCount5derefEv.exit.thread2_crit_edge.i14, label %_ZN7QStringD2Ev.exit16

_ZN9QtPrivate8RefCount5derefEv.exit._ZN9QtPrivate8RefCount5derefEv.exit.thread2_crit_edge.i14: ; preds = %_ZN9QtPrivate8RefCount5derefEv.exit.i12
  %.pre.i15 = load ptr, ptr %6, align 8
  br label %_ZN9QtPrivate8RefCount5derefEv.exit.thread2.i11

_ZN9QtPrivate8RefCount5derefEv.exit.thread2.i11:  ; preds = %_ZN9QtPrivate8RefCount5derefEv.exit._ZN9QtPrivate8RefCount5derefEv.exit.thread2_crit_edge.i14, %41
  %45 = phi ptr [ %.pre.i15, %_ZN9QtPrivate8RefCount5derefEv.exit._ZN9QtPrivate8RefCount5derefEv.exit.thread2_crit_edge.i14 ], [ %42, %41 ]
  call void @_ZN10QArrayData10deallocateEPS_mm(ptr noundef %45, i64 noundef 2, i64 noundef 8) #11
  br label %_ZN7QStringD2Ev.exit16

_ZN7QStringD2Ev.exit16:                           ; preds = %41, %_ZN9QtPrivate8RefCount5derefEv.exit.i12, %_ZN9QtPrivate8RefCount5derefEv.exit.thread2.i11
  call void @_ZN12QDomDocumentD1Ev(ptr noundef nonnull align 8 dereferenceable(8) %2) #11
  ret void

46:                                               ; preds = %16
  %47 = landingpad { ptr, i32 }
          cleanup
  call void @_ZN7QStringD2Ev(ptr noundef nonnull align 8 dereferenceable(8) %3) #11
  br label %61

48:                                               ; preds = %34, %_ZN7QStringD2Ev.exit
  %49 = landingpad { ptr, i32 }
          cleanup
  br label %60

50:                                               ; preds = %33
  %51 = landingpad { ptr, i32 }
          cleanup
  call void @_ZN8QDomNodeD2Ev(ptr noundef nonnull align 8 dereferenceable(8) %5) #11
  br label %60

52:                                               ; preds = %35
  %53 = landingpad { ptr, i32 }
          cleanup
  br label %59

54:                                               ; preds = %39, %36
  %55 = landingpad { ptr, i32 }
          cleanup
  br label %58

56:                                               ; preds = %40
  %57 = landingpad { ptr, i32 }
          cleanup
  call void @_ZN8QVariantD1Ev(ptr noundef nonnull align 8 dereferenceable(16) %8) #11
  br label %58

58:                                               ; preds = %56, %54
  %.pn = phi { ptr, i32 } [ %57, %56 ], [ %55, %54 ]
  call void @_ZN9QSettingsD1Ev(ptr noundef nonnull align 8 dereferenceable(16) %7) #11
  br label %59

59:                                               ; preds = %58, %52
  %.pn.pn = phi { ptr, i32 } [ %.pn, %58 ], [ %53, %52 ]
  call void @_ZN7QStringD2Ev(ptr noundef nonnull align 8 dereferenceable(8) %6) #11
  br label %60

60:                                               ; preds = %59, %50, %48
  %.pn.pn.pn = phi { ptr, i32 } [ %.pn.pn, %59 ], [ %49, %48 ], [ %51, %50 ]
  call void @_ZN12QDomDocumentD1Ev(ptr noundef nonnull align 8 dereferenceable(8) %2) #11
  br label %61

61:                                               ; preds = %60, %46
  %.pn.pn.pn.pn = phi { ptr, i32 } [ %.pn.pn.pn, %60 ], [ %47, %46 ]
  resume { ptr, i32 } %.pn.pn.pn.pn
}